; Function Attrs: mustprogress uwtable
define void @_ZN15TCPStreamDialog11axisClickedEP7QCPAxisNS0_14SelectablePartEP11QMouseEvent(ptr noundef nonnull align 8 dereferenceable(584) %0, ptr noundef readnone %1, i32 noundef %2, ptr nocapture noundef readnone %3) local_unnamed_addr #2 align 2 {
  %5 = getelementptr inbounds i8, ptr %0, i64 64
  %6 = load ptr, ptr %5, align 8
  %7 = getelementptr inbounds i8, ptr %6, i64 232
  %8 = load ptr, ptr %7, align 8
  %9 = getelementptr inbounds i8, ptr %8, i64 40
  %10 = load ptr, ptr %9, align 8
  %11 = icmp eq ptr %10, %1
  br i1 %11, label %12, label %15

12:                                               ; preds = %4
  %13 = getelementptr inbounds i8, ptr %0, i64 128
  %14 = load i32, ptr %13, align 8
  %switch = icmp ult i32 %14, 5
  br i1 %switch, label %.sink.split, label %25

15:                                               ; preds = %4
  %16 = getelementptr inbounds i8, ptr %8, i64 48
  %17 = load ptr, ptr %16, align 8
  %18 = icmp eq ptr %17, %1
  %19 = getelementptr inbounds i8, ptr %0, i64 128
  %20 = load i32, ptr %19, align 8
  %switch5 = icmp ult i32 %20, 2
  %or.cond = select i1 %18, i1 %switch5, i1 false
  br i1 %or.cond, label %.sink.split, label %25

.sink.split:                                      ; preds = %15, %12
  %.sink = phi i64 [ 96, %12 ], [ 120, %15 ]
  %21 = getelementptr inbounds i8, ptr %0, i64 %.sink
  %22 = load i8, ptr %21, align 8
  %23 = and i8 %22, 1
  %24 = xor i8 %23, 1
  store i8 %24, ptr %21, align 8
  tail call void @_ZN15TCPStreamDialog9fillGraphEbb(ptr noundef nonnull align 8 dereferenceable(584) %0, i1 noundef zeroext true, i1 noundef zeroext true)
  br label %25

25:                                               ; preds = %.sink.split, %12, %15
  ret void
}